target datalayout = "e-m:e-p270:32:32-p271:32:32-p272:64:64-i64:64-i128:128-f80:128-n8:16:32:64-S128"
target triple = "x86_64-pc-linux-gnu"

%struct._cms_MLU_struct = type { ptr, i32, i32, ptr, i32, i32, ptr }
%struct._cmsMLUentry = type { i16, i16, i32, i32 }

; Function Attrs: nounwind uwtable
define internal ptr @_cmsMLUgetWide(ptr noundef %0, ptr noundef %1, i16 noundef zeroext %2, i16 noundef zeroext %3, ptr noundef %4, ptr noundef %5) #0 {
  %7 = alloca ptr, align 8
  %8 = alloca ptr, align 8
  %9 = alloca ptr, align 8
  %10 = alloca i16, align 2
  %11 = alloca i16, align 2
  %12 = alloca ptr, align 8
  %13 = alloca ptr, align 8
  %14 = alloca i32, align 4
  %15 = alloca i32, align 4
  %16 = alloca ptr, align 8
  store ptr %0, ptr %8, align 8
  store ptr %1, ptr %9, align 8
  store i16 %2, ptr %10, align 2
  store i16 %3, ptr %11, align 2
  store ptr %4, ptr %12, align 8
  store ptr %5, ptr %13, align 8
  store i32 -1, ptr %15, align 4
  %17 = load ptr, ptr %8, align 8
  %18 = icmp eq ptr %17, null
  br i1 %18, label %19, label %20

19:                                               ; preds = %6
  store ptr null, ptr %7, align 8
  br label %154

20:                                               ; preds = %6
  %21 = load ptr, ptr %8, align 8
  %22 = getelementptr inbounds %struct._cms_MLU_struct, ptr %21, i32 0, i32 1
  %23 = load i32, ptr %22, align 8
  %24 = icmp ule i32 %23, 0
  br i1 %24, label %25, label %26

25:                                               ; preds = %20
  store ptr null, ptr %7, align 8
  br label %154

26:                                               ; preds = %20
  store i32 0, ptr %14, align 4
  br label %27

27:                                               ; preds = %95, %26
  %28 = load i32, ptr %14, align 4
  %29 = load ptr, ptr %8, align 8
  %30 = getelementptr inbounds %struct._cms_MLU_struct, ptr %29, i32 0, i32 2
  %31 = load i32, ptr %30, align 4
  %32 = icmp ult i32 %28, %31
  br i1 %32, label %33, label %98

33:                                               ; preds = %27
  %34 = load ptr, ptr %8, align 8
  %35 = getelementptr inbounds %struct._cms_MLU_struct, ptr %34, i32 0, i32 3
  %36 = load ptr, ptr %35, align 8
  %37 = load i32, ptr %14, align 4
  %38 = zext i32 %37 to i64
  %39 = getelementptr inbounds %struct._cmsMLUentry, ptr %36, i64 %38
  store ptr %39, ptr %16, align 8
  %40 = load ptr, ptr %16, align 8
  %41 = getelementptr inbounds %struct._cmsMLUentry, ptr %40, i32 0, i32 0
  %42 = load i16, ptr %41, align 4
  %43 = zext i16 %42 to i32
  %44 = load i16, ptr %10, align 2
  %45 = zext i16 %44 to i32
  %46 = icmp eq i32 %43, %45
  br i1 %46, label %47, label %94

47:                                               ; preds = %33
  %48 = load i32, ptr %15, align 4
  %49 = icmp eq i32 %48, -1
  br i1 %49, label %50, label %52

50:                                               ; preds = %47
  %51 = load i32, ptr %14, align 4
  store i32 %51, ptr %15, align 4
  br label %52

52:                                               ; preds = %50, %47
  %53 = load ptr, ptr %16, align 8
  %54 = getelementptr inbounds %struct._cmsMLUentry, ptr %53, i32 0, i32 1
  %55 = load i16, ptr %54, align 2
  %56 = zext i16 %55 to i32
  %57 = load i16, ptr %11, align 2
  %58 = zext i16 %57 to i32
  %59 = icmp eq i32 %56, %58
  br i1 %59, label %60, label %93

60:                                               ; preds = %52
  %61 = load ptr, ptr %12, align 8
  %62 = icmp ne ptr %61, null
  br i1 %62, label %63, label %68

63:                                               ; preds = %60
  %64 = load ptr, ptr %16, align 8
  %65 = getelementptr inbounds %struct._cmsMLUentry, ptr %64, i32 0, i32 0
  %66 = load i16, ptr %65, align 4
  %67 = load ptr, ptr %12, align 8
  store i16 %66, ptr %67, align 2
  br label %68

68:                                               ; preds = %63, %60
  %69 = load ptr, ptr %13, align 8
  %70 = icmp ne ptr %69, null
  br i1 %70, label %71, label %76

71:                                               ; preds = %68
  %72 = load ptr, ptr %16, align 8
  %73 = getelementptr inbounds %struct._cmsMLUentry, ptr %72, i32 0, i32 1
  %74 = load i16, ptr %73, align 2
  %75 = load ptr, ptr %13, align 8
  store i16 %74, ptr %75, align 2
  br label %76

76:                                               ; preds = %71, %68
  %77 = load ptr, ptr %9, align 8
  %78 = icmp ne ptr %77, null
  br i1 %78, label %79, label %84

79:                                               ; preds = %76
  %80 = load ptr, ptr %16, align 8
  %81 = getelementptr inbounds %struct._cmsMLUentry, ptr %80, i32 0, i32 3
  %82 = load i32, ptr %81, align 4
  %83 = load ptr, ptr %9, align 8
  store i32 %82, ptr %83, align 4
  br label %84

84:                                               ; preds = %79, %76
  %85 = load ptr, ptr %8, align 8
  %86 = getelementptr inbounds %struct._cms_MLU_struct, ptr %85, i32 0, i32 6
  %87 = load ptr, ptr %86, align 8
  %88 = load ptr, ptr %16, align 8
  %89 = getelementptr inbounds %struct._cmsMLUentry, ptr %88, i32 0, i32 2
  %90 = load i32, ptr %89, align 4
  %91 = zext i32 %90 to i64
  %92 = getelementptr inbounds i8, ptr %87, i64 %91
  store ptr %92, ptr %7, align 8
  br label %154

93:                                               ; preds = %52
  br label %94

94:                                               ; preds = %93, %33
  br label %95

95:                                               ; preds = %94
  %96 = load i32, ptr %14, align 4
  %97 = add i32 %96, 1
  store i32 %97, ptr %14, align 4
  br label %27, !llvm.loop !12

98:                                               ; preds = %27
  %99 = load i32, ptr %15, align 4
  %100 = icmp eq i32 %99, -1
  br i1 %100, label %101, label %102

101:                                              ; preds = %98
  store i32 0, ptr %15, align 4
  br label %102

102:                                              ; preds = %101, %98
  %103 = load ptr, ptr %8, align 8
  %104 = getelementptr inbounds %struct._cms_MLU_struct, ptr %103, i32 0, i32 3
  %105 = load ptr, ptr %104, align 8
  %106 = load i32, ptr %15, align 4
  %107 = sext i32 %106 to i64
  %108 = getelementptr inbounds %struct._cmsMLUentry, ptr %105, i64 %107
  store ptr %108, ptr %16, align 8
  %109 = load ptr, ptr %12, align 8
  %110 = icmp ne ptr %109, null
  br i1 %110, label %111, label %116

111:                                              ; preds = %102
  %112 = load ptr, ptr %16, align 8
  %113 = getelementptr inbounds %struct._cmsMLUentry, ptr %112, i32 0, i32 0
  %114 = load i16, ptr %113, align 4
  %115 = load ptr, ptr %12, align 8
  store i16 %114, ptr %115, align 2
  br label %116

116:                                              ; preds = %111, %102
  %117 = load ptr, ptr %13, align 8
  %118 = icmp ne ptr %117, null
  br i1 %118, label %119, label %124

119:                                              ; preds = %116
  %120 = load ptr, ptr %16, align 8
  %121 = getelementptr inbounds %struct._cmsMLUentry, ptr %120, i32 0, i32 1
  %122 = load i16, ptr %121, align 2
  %123 = load ptr, ptr %13, align 8
  store i16 %122, ptr %123, align 2
  br label %124

124:                                              ; preds = %119, %116
  %125 = load ptr, ptr %9, align 8
  %126 = icmp ne ptr %125, null
  br i1 %126, label %127, label %132

127:                                              ; preds = %124
  %128 = load ptr, ptr %16, align 8
  %129 = getelementptr inbounds %struct._cmsMLUentry, ptr %128, i32 0, i32 3
  %130 = load i32, ptr %129, align 4
  %131 = load ptr, ptr %9, align 8
  store i32 %130, ptr %131, align 4
  br label %132

132:                                              ; preds = %127, %124
  %133 = load ptr, ptr %16, align 8
  %134 = getelementptr inbounds %struct._cmsMLUentry, ptr %133, i32 0, i32 2
  %135 = load i32, ptr %134, align 4
  %136 = load ptr, ptr %16, align 8
  %137 = getelementptr inbounds %struct._cmsMLUentry, ptr %136, i32 0, i32 3
  %138 = load i32, ptr %137, align 4
  %139 = add i32 %135, %138
  %140 = load ptr, ptr %8, align 8
  %141 = getelementptr inbounds %struct._cms_MLU_struct, ptr %140, i32 0, i32 4
  %142 = load i32, ptr %141, align 8
  %143 = icmp ugt i32 %139, %142
  br i1 %143, label %144, label %145

144:                                              ; preds = %132
  store ptr null, ptr %7, align 8
  br label %154

145:                                              ; preds = %132
  %146 = load ptr, ptr %8, align 8
  %147 = getelementptr inbounds %struct._cms_MLU_struct, ptr %146, i32 0, i32 6
  %148 = load ptr, ptr %147, align 8
  %149 = load ptr, ptr %16, align 8
  %150 = getelementptr inbounds %struct._cmsMLUentry, ptr %149, i32 0, i32 2
  %151 = load i32, ptr %150, align 4
  %152 = zext i32 %151 to i64
  %153 = getelementptr inbounds i8, ptr %148, i64 %152
  store ptr %153, ptr %7, align 8
  br label %154

154:                                              ; preds = %145, %144, %84, %25, %19
  %155 = load ptr, ptr %7, align 8
  ret ptr %155
}

; Function Attrs: nounwind uwtable
define internal zeroext i16 @strTo16(ptr noundef %0) #0 {
  %2 = alloca i16, align 2
  %3 = alloca ptr, align 8
  %4 = alloca ptr, align 8
  %5 = alloca i16, align 2
  store ptr %0, ptr %3, align 8
  %6 = load ptr, ptr %3, align 8
  %7 = icmp eq ptr %6, null
  br i1 %7, label %8, label %9

8:                                                ; preds = %1
  store i16 0, ptr %2, align 2
  br label %24

9:                                                ; preds = %1
  %10 = load ptr, ptr %3, align 8
  store ptr %10, ptr %4, align 8
  %11 = load ptr, ptr %4, align 8
  %12 = getelementptr inbounds i8, ptr %11, i64 0
  %13 = load i8, ptr %12, align 1
  %14 = zext i8 %13 to i16
  %15 = zext i16 %14 to i32
  %16 = shl i32 %15, 8
  %17 = load ptr, ptr %4, align 8
  %18 = getelementptr inbounds i8, ptr %17, i64 1
  %19 = load i8, ptr %18, align 1
  %20 = zext i8 %19 to i32
  %21 = or i32 %16, %20
  %22 = trunc i32 %21 to i16
  store i16 %22, ptr %5, align 2
  %23 = load i16, ptr %5, align 2
  store i16 %23, ptr %2, align 2
  br label %24

24:                                               ; preds = %9, %8
  %25 = load i16, ptr %2, align 2
  ret i16 %25
}

; Function Attrs: nounwind uwtable
define hidden i32 @cmsMLUgetUTF8(ptr noundef %0, ptr noundef %1, ptr noundef %2, ptr noundef %3, i32 noundef %4) #0 {
  %6 = alloca i32, align 4
  %7 = alloca ptr, align 8
  %8 = alloca ptr, align 8
  %9 = alloca ptr, align 8
  %10 = alloca ptr, align 8
  %11 = alloca i32, align 4
  %12 = alloca ptr, align 8
  %13 = alloca i32, align 4
  %14 = alloca i32, align 4
  %15 = alloca i16, align 2
  %16 = alloca i16, align 2
  store ptr %0, ptr %7, align 8
  store ptr %1, ptr %8, align 8
  store ptr %2, ptr %9, align 8
  store ptr %3, ptr %10, align 8
  store i32 %4, ptr %11, align 4
  store i32 0, ptr %13, align 4
  %17 = load ptr, ptr %8, align 8
  %18 = call zeroext i16 @strTo16(ptr noundef %17)
  store i16 %18, ptr %15, align 2
  %19 = load ptr, ptr %9, align 8
  %20 = call zeroext i16 @strTo16(ptr noundef %19)
  store i16 %20, ptr %16, align 2
  %21 = load ptr, ptr %7, align 8
  %22 = icmp eq ptr %21, null
  br i1 %22, label %23, label %24

23:                                               ; preds = %5
  store i32 0, ptr %6, align 4
  br label %72

24:                                               ; preds = %5
  %25 = load ptr, ptr %7, align 8
  %26 = load i16, ptr %15, align 2
  %27 = load i16, ptr %16, align 2
  %28 = call ptr @_cmsMLUgetWide(ptr noundef %25, ptr noundef %13, i16 noundef zeroext %26, i16 noundef zeroext %27, ptr noundef null, ptr noundef null)
  store ptr %28, ptr %12, align 8
  %29 = load ptr, ptr %12, align 8
  %30 = icmp eq ptr %29, null
  br i1 %30, label %31, label %32

31:                                               ; preds = %24
  store i32 0, ptr %6, align 4
  br label %72

32:                                               ; preds = %24
  %33 = load ptr, ptr %12, align 8
  %34 = load i32, ptr %13, align 4
  %35 = zext i32 %34 to i64
  %36 = udiv i64 %35, 4
  %37 = trunc i64 %36 to i32
  %38 = load i32, ptr %11, align 4
  %39 = call i32 @encodeUTF8(ptr noundef null, ptr noundef %33, i32 noundef %37, i32 noundef %38)
  store i32 %39, ptr %14, align 4
  %40 = load ptr, ptr %10, align 8
  %41 = icmp eq ptr %40, null
  br i1 %41, label %42, label %45

42:                                               ; preds = %32
  %43 = load i32, ptr %14, align 4
  %44 = add i32 %43, 1
  store i32 %44, ptr %6, align 4
  br label %72

45:                                               ; preds = %32
  %46 = load i32, ptr %11, align 4
  %47 = icmp ule i32 %46, 0
  br i1 %47, label %48, label %49

48:                                               ; preds = %45
  store i32 0, ptr %6, align 4
  br label %72

49:                                               ; preds = %45
  %50 = load i32, ptr %11, align 4
  %51 = load i32, ptr %14, align 4
  %52 = add i32 %51, 1
  %53 = icmp ult i32 %50, %52
  br i1 %53, label %54, label %57

54:                                               ; preds = %49
  %55 = load i32, ptr %11, align 4
  %56 = sub i32 %55, 1
  store i32 %56, ptr %14, align 4
  br label %57

57:                                               ; preds = %54, %49
  %58 = load ptr, ptr %10, align 8
  %59 = load ptr, ptr %12, align 8
  %60 = load i32, ptr %13, align 4
  %61 = zext i32 %60 to i64
  %62 = udiv i64 %61, 4
  %63 = trunc i64 %62 to i32
  %64 = load i32, ptr %11, align 4
  %65 = call i32 @encodeUTF8(ptr noundef %58, ptr noundef %59, i32 noundef %63, i32 noundef %64)
  %66 = load ptr, ptr %10, align 8
  %67 = load i32, ptr %14, align 4
  %68 = zext i32 %67 to i64
  %69 = getelementptr inbounds i8, ptr %66, i64 %68
  store i8 0, ptr %69, align 1
  %70 = load i32, ptr %14, align 4
  %71 = add i32 %70, 1
  store i32 %71, ptr %6, align 4
  br label %72

72:                                               ; preds = %57, %48, %42, %31, %23
  %73 = load i32, ptr %6, align 4
  ret i32 %73
}