; Function Attrs: nofree norecurse nosync nounwind memory(readwrite, inaccessiblemem: none) uwtable
define hidden i32 @cmsMLUgetUTF8(ptr noundef readonly %0, ptr noundef readonly %1, ptr noundef readonly %2, ptr noundef %3, i32 noundef %4) local_unnamed_addr #5 {
  %6 = icmp eq ptr %1, null
  br i1 %6, label %strTo16.exit, label %7

7:                                                ; preds = %5
  %8 = load i8, ptr %1, align 1
  %9 = zext i8 %8 to i16
  %10 = shl nuw i16 %9, 8
  %11 = getelementptr inbounds i8, ptr %1, i64 1
  %12 = load i8, ptr %11, align 1
  %13 = zext i8 %12 to i16
  %14 = or disjoint i16 %10, %13
  br label %strTo16.exit

strTo16.exit:                                     ; preds = %5, %7
  %.0.i = phi i16 [ %14, %7 ], [ 0, %5 ]
  %15 = icmp eq ptr %2, null
  br i1 %15, label %strTo16.exit27, label %16

16:                                               ; preds = %strTo16.exit
  %17 = load i8, ptr %2, align 1
  %18 = zext i8 %17 to i16
  %19 = shl nuw i16 %18, 8
  %20 = getelementptr inbounds i8, ptr %2, i64 1
  %21 = load i8, ptr %20, align 1
  %22 = zext i8 %21 to i16
  %23 = or disjoint i16 %19, %22
  br label %strTo16.exit27

strTo16.exit27:                                   ; preds = %strTo16.exit, %16
  %.0.i26 = phi i16 [ %23, %16 ], [ 0, %strTo16.exit ]
  %24 = icmp eq ptr %0, null
  br i1 %24, label %_cmsMLUgetWide.exit.thread, label %25

25:                                               ; preds = %strTo16.exit27
  %26 = getelementptr inbounds i8, ptr %0, i64 8
  %27 = load i32, ptr %26, align 8
  %28 = icmp eq i32 %27, 0
  br i1 %28, label %_cmsMLUgetWide.exit.thread, label %.preheader.i

.preheader.i:                                     ; preds = %25
  %29 = getelementptr inbounds i8, ptr %0, i64 12
  %30 = load i32, ptr %29, align 4
  %.not61.i = icmp eq i32 %30, 0
  %.phi.trans.insert.i = getelementptr inbounds i8, ptr %0, i64 16
  %.pre.i = load ptr, ptr %.phi.trans.insert.i, align 8
  br i1 %.not61.i, label %._crit_edge.thread.i, label %.lr.ph.i

.lr.ph.i:                                         ; preds = %.preheader.i
  %wide.trip.count.i = zext i32 %30 to i64
  br label %31

31:                                               ; preds = %46, %.lr.ph.i
  %indvars.iv.i = phi i64 [ 0, %.lr.ph.i ], [ %indvars.iv.next.i, %46 ]
  %.060.i = phi i32 [ -1, %.lr.ph.i ], [ %.2.fr.i, %46 ]
  %32 = getelementptr inbounds %struct._cmsMLUentry, ptr %.pre.i, i64 %indvars.iv.i
  %33 = load i16, ptr %32, align 4
  %34 = icmp eq i16 %33, %.0.i
  br i1 %34, label %35, label %46

35:                                               ; preds = %31
  %36 = icmp eq i32 %.060.i, -1
  %37 = trunc nuw i64 %indvars.iv.i to i32
  %spec.select.i = select i1 %36, i32 %37, i32 %.060.i
  %38 = getelementptr inbounds i8, ptr %32, i64 2
  %39 = load i16, ptr %38, align 2
  %40 = icmp eq i16 %39, %.0.i26
  br i1 %40, label %41, label %46

41:                                               ; preds = %35
  %42 = getelementptr inbounds i8, ptr %32, i64 8
  %43 = load i32, ptr %42, align 4
  %44 = getelementptr inbounds i8, ptr %32, i64 4
  %45 = load i32, ptr %44, align 4
  br label %_cmsMLUgetWide.exit

46:                                               ; preds = %35, %31
  %.2.i = phi i32 [ %spec.select.i, %35 ], [ %.060.i, %31 ]
  %.2.fr.i = freeze i32 %.2.i
  %indvars.iv.next.i = add nuw nsw i64 %indvars.iv.i, 1
  %exitcond.not.i = icmp eq i64 %indvars.iv.next.i, %wide.trip.count.i
  br i1 %exitcond.not.i, label %._crit_edge.i, label %31, !llvm.loop !12

._crit_edge.i:                                    ; preds = %46
  %47 = icmp eq i32 %.2.fr.i, -1
  %spec.select74.i = select i1 %47, i32 0, i32 %.2.fr.i
  %48 = sext i32 %spec.select74.i to i64
  br label %._crit_edge.thread.i

._crit_edge.thread.i:                             ; preds = %._crit_edge.i, %.preheader.i
  %49 = phi i64 [ 0, %.preheader.i ], [ %48, %._crit_edge.i ]
  %50 = getelementptr inbounds %struct._cmsMLUentry, ptr %.pre.i, i64 %49
  %.phi.trans.insert67.i = getelementptr inbounds i8, ptr %50, i64 8
  %.pre68.i = load i32, ptr %.phi.trans.insert67.i, align 4
  %51 = getelementptr inbounds i8, ptr %50, i64 4
  %52 = load i32, ptr %51, align 4
  %53 = add i32 %52, %.pre68.i
  %54 = getelementptr inbounds i8, ptr %0, i64 24
  %55 = load i32, ptr %54, align 8
  %56 = icmp ugt i32 %53, %55
  br i1 %56, label %_cmsMLUgetWide.exit.thread, label %_cmsMLUgetWide.exit

_cmsMLUgetWide.exit:                              ; preds = %._crit_edge.thread.i, %41
  %.sink36 = phi i32 [ %45, %41 ], [ %52, %._crit_edge.thread.i ]
  %.029 = phi i32 [ %43, %41 ], [ %.pre68.i, %._crit_edge.thread.i ]
  %.sink.in = getelementptr inbounds i8, ptr %0, i64 32
  %.sink = load ptr, ptr %.sink.in, align 8
  %57 = zext i32 %.sink36 to i64
  %58 = getelementptr inbounds i8, ptr %.sink, i64 %57
  %59 = icmp eq ptr %.sink, null
  br i1 %59, label %_cmsMLUgetWide.exit.thread, label %60

60:                                               ; preds = %_cmsMLUgetWide.exit
  %61 = lshr i32 %.029, 2
  %62 = tail call fastcc i32 @encodeUTF8(ptr noundef null, ptr noundef nonnull %58, i32 noundef %61, i32 noundef %4)
  %63 = icmp eq ptr %3, null
  br i1 %63, label %64, label %66

64:                                               ; preds = %60
  %65 = add i32 %62, 1
  br label %_cmsMLUgetWide.exit.thread

66:                                               ; preds = %60
  %67 = icmp eq i32 %4, 0
  br i1 %67, label %_cmsMLUgetWide.exit.thread, label %68

68:                                               ; preds = %66
  %69 = add i32 %62, 1
  %70 = icmp ugt i32 %69, %4
  %71 = add i32 %4, -1
  %spec.select = select i1 %70, i32 %71, i32 %62
  %72 = tail call fastcc i32 @encodeUTF8(ptr noundef nonnull %3, ptr noundef nonnull %58, i32 noundef %61, i32 noundef %4)
  %73 = zext i32 %spec.select to i64
  %74 = getelementptr inbounds i8, ptr %3, i64 %73
  store i8 0, ptr %74, align 1
  %75 = add i32 %spec.select, 1
  br label %_cmsMLUgetWide.exit.thread

_cmsMLUgetWide.exit.thread:                       ; preds = %._crit_edge.thread.i, %25, %66, %_cmsMLUgetWide.exit, %strTo16.exit27, %68, %64
  %.0 = phi i32 [ %65, %64 ], [ %75, %68 ], [ 0, %strTo16.exit27 ], [ 0, %_cmsMLUgetWide.exit ], [ 0, %66 ], [ 0, %25 ], [ 0, %._crit_edge.thread.i ]
  ret i32 %.0
}